; Function Attrs: nofree norecurse nosync nounwind memory(argmem: readwrite) uwtable
define internal void @DC8uv_SSE2(ptr noundef captures(none) %0) #2 {
  %2 = getelementptr inbounds i8, ptr %0, i64 -32
  %3 = load i64, ptr %2, align 1, !tbaa !7
  %4 = insertelement <2 x i64> <i64 poison, i64 0>, i64 %3, i64 0
  %5 = bitcast <2 x i64> %4 to <16 x i8>
  %invariant.gep = getelementptr i8, ptr %0, i64 -1
  br label %6

6:                                                ; preds = %1, %6
  %indvars.iv = phi i64 [ 0, %1 ], [ %indvars.iv.next, %6 ]
  %.013 = phi i32 [ 0, %1 ], [ %10, %6 ]
  %7 = shl nuw nsw i64 %indvars.iv, 5
  %gep = getelementptr i8, ptr %invariant.gep, i64 %7
  %8 = load i8, ptr %gep, align 1, !tbaa !7
  %9 = zext i8 %8 to i32
  %10 = add nuw nsw i32 %.013, %9
  %indvars.iv.next = add nuw nsw i64 %indvars.iv, 1
  %exitcond.not = icmp eq i64 %indvars.iv.next, 8
  br i1 %exitcond.not, label %11, label %6, !llvm.loop !22

11:                                               ; preds = %6
  %12 = tail call <2 x i64> @llvm.x86.sse2.psad.bw(<16 x i8> %5, <16 x i8> zeroinitializer)
  %13 = bitcast <2 x i64> %12 to <4 x i32>
  %14 = extractelement <4 x i32> %13, i64 0
  %15 = add i32 %14, 8
  %16 = add i32 %15, %10
  %17 = lshr i32 %16, 4
  %18 = trunc i32 %17 to i8
  %19 = insertelement <16 x i8> poison, i8 %18, i64 0
  %20 = shufflevector <16 x i8> %19, <16 x i8> poison, <16 x i32> <i32 0, i32 0, i32 0, i32 0, i32 0, i32 0, i32 0, i32 0, i32 poison, i32 poison, i32 poison, i32 poison, i32 poison, i32 poison, i32 poison, i32 poison>
  %21 = bitcast <16 x i8> %20 to <2 x i64>
  %22 = extractelement <2 x i64> %21, i64 0
  br label %23

23:                                               ; preds = %23, %11
  %indvars.iv.i = phi i64 [ 0, %11 ], [ %indvars.iv.next.i, %23 ]
  %24 = shl nuw nsw i64 %indvars.iv.i, 5
  %25 = getelementptr inbounds nuw i8, ptr %0, i64 %24
  store i64 %22, ptr %25, align 1, !tbaa !7
  %indvars.iv.next.i = add nuw nsw i64 %indvars.iv.i, 1
  %exitcond.not.i = icmp eq i64 %indvars.iv.next.i, 8
  br i1 %exitcond.not.i, label %Put8x8uv_SSE2.exit, label %23, !llvm.loop !23

Put8x8uv_SSE2.exit:                               ; preds = %23
  ret void
}